; Function Attrs: mustprogress uwtable
define hidden void @_ZN4cvc58internal5proof18AlfPrintChannelOut17printNodeInternalERSoNS0_12NodeTemplateILb1EEE(ptr nocapture noundef nonnull readonly align 8 dereferenceable(112) %this, ptr noundef nonnull align 8 dereferenceable(8) %out, ptr nocapture noundef readonly %n) local_unnamed_addr #3 align 2 personality ptr @__gxx_personality_v0 {
entry:
  %agg.tmp = alloca %"class.cvc5::internal::NodeTemplate", align 8
  %vtable = load ptr, ptr %out, align 8
  %vbase.offset.ptr = getelementptr i8, ptr %vtable, i64 -24
  %vbase.offset = load i64, ptr %vbase.offset.ptr, align 8
  %add.ptr = getelementptr inbounds i8, ptr %out, i64 %vbase.offset
  tail call void @_ZN4cvc58internal7options7ioutils19applyOutputLanguageERSt8ios_baseNS0_8LanguageE(ptr noundef nonnull align 8 dereferenceable(216) %add.ptr, i32 noundef 0)
  %call = tail call noundef ptr @_ZN4cvc58internal7Printer10getPrinterERSo(ptr noundef nonnull align 8 dereferenceable(8) %out)
  %0 = load ptr, ptr %n, align 8
  store ptr %0, ptr %agg.tmp, align 8
  %d_lbind = getelementptr inbounds i8, ptr %this, i64 16
  %1 = load ptr, ptr %d_lbind, align 8
  %vtable2 = load ptr, ptr %call, align 8
  %vfn = getelementptr inbounds i8, ptr %vtable2, i64 24
  %2 = load ptr, ptr %vfn, align 8
  call void %2(ptr noundef nonnull align 8 dereferenceable(8) %call, ptr noundef nonnull align 8 dereferenceable(8) %out, ptr noundef nonnull %agg.tmp, ptr noundef %1)
  ret void
}